; Function Attrs: nounwind uwtable
define i32 @Tim_ManPiNum(ptr noundef %0) local_unnamed_addr #0 {
  %2 = load ptr, ptr %0, align 8
  %.not.i = icmp eq ptr %2, null
  br i1 %.not.i, label %Tim_ManBoxNum.exit.thread, label %Tim_ManBoxNum.exit

Tim_ManBoxNum.exit:                               ; preds = %1
  %3 = getelementptr i8, ptr %2, i64 4
  %.val.i = load i32, ptr %3, align 4
  %4 = icmp eq i32 %.val.i, 0
  br i1 %4, label %Tim_ManBoxNum.exit.thread, label %7

Tim_ManBoxNum.exit.thread:                        ; preds = %1, %Tim_ManBoxNum.exit
  %5 = getelementptr inbounds nuw i8, ptr %0, i64 32
  %6 = load i32, ptr %5, align 8
  br label %9

7:                                                ; preds = %Tim_ManBoxNum.exit
  %8 = tail call i32 @Tim_ManBoxOutputFirst(ptr noundef nonnull %0, i32 noundef 0) #18
  br label %9

9:                                                ; preds = %7, %Tim_ManBoxNum.exit.thread
  %.0 = phi i32 [ %6, %Tim_ManBoxNum.exit.thread ], [ %8, %7 ]
  ret i32 %.0
}